
ShiftOutTest.elf:     file format elf32-avr

Sections:
Idx Name          Size      VMA       LMA       File off  Algn
  0 .text         00000338  00000000  00000000  00000094  2**1
                  CONTENTS, ALLOC, LOAD, READONLY, CODE
  1 .data         00000004  00800060  00000338  000003cc  2**0
                  CONTENTS, ALLOC, LOAD, DATA
  2 .eeprom       00000001  00810000  00810000  000003d0  2**0
                  CONTENTS, ALLOC, LOAD, DATA
  3 .comment      00000030  00000000  00000000  000003d1  2**0
                  CONTENTS, READONLY

Disassembly of section .text:

00000000 <__vectors>:
   0:	0e c0       	rjmp	.+28     	; 0x1e <__ctors_end>
   2:	20 c0       	rjmp	.+64     	; 0x44 <__bad_interrupt>
   4:	1f c0       	rjmp	.+62     	; 0x44 <__bad_interrupt>
   6:	1e c0       	rjmp	.+60     	; 0x44 <__bad_interrupt>
   8:	1d c0       	rjmp	.+58     	; 0x44 <__bad_interrupt>
   a:	1c c0       	rjmp	.+56     	; 0x44 <__bad_interrupt>
   c:	1b c0       	rjmp	.+54     	; 0x44 <__bad_interrupt>
   e:	1a c0       	rjmp	.+52     	; 0x44 <__bad_interrupt>
  10:	19 c0       	rjmp	.+50     	; 0x44 <__bad_interrupt>
  12:	18 c0       	rjmp	.+48     	; 0x44 <__bad_interrupt>
  14:	17 c0       	rjmp	.+46     	; 0x44 <__bad_interrupt>
  16:	16 c0       	rjmp	.+44     	; 0x44 <__bad_interrupt>
  18:	15 c0       	rjmp	.+42     	; 0x44 <__bad_interrupt>
  1a:	14 c0       	rjmp	.+40     	; 0x44 <__bad_interrupt>
  1c:	13 c0       	rjmp	.+38     	; 0x44 <__bad_interrupt>

0000001e <__ctors_end>:
  1e:	11 24       	eor	r1, r1
  20:	1f be       	out	0x3f, r1	; 63
  22:	cf e5       	ldi	r28, 0x5F	; 95
  24:	d1 e0       	ldi	r29, 0x01	; 1
  26:	de bf       	out	0x3e, r29	; 62
  28:	cd bf       	out	0x3d, r28	; 61

0000002a <__do_copy_data>:
  2a:	10 e0       	ldi	r17, 0x00	; 0
  2c:	a0 e6       	ldi	r26, 0x60	; 96
  2e:	b0 e0       	ldi	r27, 0x00	; 0
  30:	e8 e3       	ldi	r30, 0x38	; 56
  32:	f3 e0       	ldi	r31, 0x03	; 3
  34:	02 c0       	rjmp	.+4      	; 0x3a <__do_copy_data+0x10>
  36:	05 90       	lpm	r0, Z+
  38:	0d 92       	st	X+, r0
  3a:	a4 36       	cpi	r26, 0x64	; 100
  3c:	b1 07       	cpc	r27, r17
  3e:	d9 f7       	brne	.-10     	; 0x36 <__do_copy_data+0xc>
  40:	1e d0       	rcall	.+60     	; 0x7e <main>
  42:	78 c1       	rjmp	.+752    	; 0x334 <_exit>

00000044 <__bad_interrupt>:
  44:	dd cf       	rjmp	.-70     	; 0x0 <__vectors>

00000046 <getNthByte>:
  46:	21 e0       	ldi	r18, 0x01	; 1
  48:	30 e0       	ldi	r19, 0x00	; 0
  4a:	06 2e       	mov	r0, r22
  4c:	01 c0       	rjmp	.+2      	; 0x50 <getNthByte+0xa>
  4e:	22 0f       	add	r18, r18
  50:	0a 94       	dec	r0
  52:	ea f7       	brpl	.-6      	; 0x4e <getNthByte+0x8>
  54:	82 23       	and	r24, r18
  56:	90 e0       	ldi	r25, 0x00	; 0
  58:	02 c0       	rjmp	.+4      	; 0x5e <getNthByte+0x18>
  5a:	95 95       	asr	r25
  5c:	87 95       	ror	r24
  5e:	6a 95       	dec	r22
  60:	e2 f7       	brpl	.-8      	; 0x5a <getNthByte+0x14>
  62:	08 95       	ret

00000064 <initRand>:
  64:	80 e0       	ldi	r24, 0x00	; 0
  66:	90 e0       	ldi	r25, 0x00	; 0
  68:	8f d0       	rcall	.+286    	; 0x188 <__eerd_byte_tn45>
  6a:	8f 3f       	cpi	r24, 0xFF	; 255
  6c:	09 f4       	brne	.+2      	; 0x70 <initRand+0xc>
  6e:	8a ea       	ldi	r24, 0xAA	; 170
  70:	90 e0       	ldi	r25, 0x00	; 0
  72:	7f d0       	rcall	.+254    	; 0x172 <srand>
  74:	7a d0       	rcall	.+244    	; 0x16a <rand>
  76:	68 2f       	mov	r22, r24
  78:	80 e0       	ldi	r24, 0x00	; 0
  7a:	90 e0       	ldi	r25, 0x00	; 0
  7c:	8d c0       	rjmp	.+282    	; 0x198 <__eewr_byte_tn45>

0000007e <main>:
  7e:	f2 df       	rcall	.-28     	; 0x64 <initRand>
  80:	b8 9a       	sbi	0x17, 0	; 23
  82:	b9 9a       	sbi	0x17, 1	; 23
  84:	ba 9a       	sbi	0x17, 2	; 23
  86:	c0 98       	cbi	0x18, 0	; 24
  88:	8b e0       	ldi	r24, 0x0B	; 11
  8a:	c1 98       	cbi	0x18, 1	; 24
  8c:	c2 98       	cbi	0x18, 2	; 24
  8e:	c1 9a       	sbi	0x18, 1	; 24
  90:	81 50       	subi	r24, 0x01	; 1
  92:	d9 f7       	brne	.-10     	; 0x8a <main+0xc>
  94:	c0 9a       	sbi	0x18, 0	; 24
  96:	2f e7       	ldi	r18, 0x7F	; 127
  98:	89 ea       	ldi	r24, 0xA9	; 169
  9a:	93 e0       	ldi	r25, 0x03	; 3
  9c:	21 50       	subi	r18, 0x01	; 1
  9e:	80 40       	sbci	r24, 0x00	; 0
  a0:	90 40       	sbci	r25, 0x00	; 0
  a2:	e1 f7       	brne	.-8      	; 0x9c <main+0x1e>
  a4:	00 c0       	rjmp	.+0      	; 0xa6 <main+0x28>
  a6:	00 00       	nop
  a8:	c0 98       	cbi	0x18, 0	; 24
  aa:	c0 e0       	ldi	r28, 0x00	; 0
  ac:	c1 98       	cbi	0x18, 1	; 24
  ae:	6c 2f       	mov	r22, r28
  b0:	8f ef       	ldi	r24, 0xFF	; 255
  b2:	c9 df       	rcall	.-110    	; 0x46 <getNthByte>
  b4:	81 11       	cpse	r24, r1
  b6:	02 c0       	rjmp	.+4      	; 0xbc <main+0x3e>
  b8:	c2 98       	cbi	0x18, 2	; 24
  ba:	01 c0       	rjmp	.+2      	; 0xbe <main+0x40>
  bc:	c2 9a       	sbi	0x18, 2	; 24
  be:	c1 9a       	sbi	0x18, 1	; 24
  c0:	cf 5f       	subi	r28, 0xFF	; 255
  c2:	c8 30       	cpi	r28, 0x08	; 8
  c4:	99 f7       	brne	.-26     	; 0xac <main+0x2e>
  c6:	c0 9a       	sbi	0x18, 0	; 24
  c8:	2f e7       	ldi	r18, 0x7F	; 127
  ca:	89 ea       	ldi	r24, 0xA9	; 169
  cc:	93 e0       	ldi	r25, 0x03	; 3
  ce:	21 50       	subi	r18, 0x01	; 1
  d0:	80 40       	sbci	r24, 0x00	; 0
  d2:	90 40       	sbci	r25, 0x00	; 0
  d4:	e1 f7       	brne	.-8      	; 0xce <main+0x50>
  d6:	00 c0       	rjmp	.+0      	; 0xd8 <main+0x5a>
  d8:	00 00       	nop
  da:	c0 98       	cbi	0x18, 0	; 24
  dc:	8b e0       	ldi	r24, 0x0B	; 11
  de:	c1 98       	cbi	0x18, 1	; 24
  e0:	c2 98       	cbi	0x18, 2	; 24
  e2:	c1 9a       	sbi	0x18, 1	; 24
  e4:	81 50       	subi	r24, 0x01	; 1
  e6:	d9 f7       	brne	.-10     	; 0xde <main+0x60>
  e8:	d5 cf       	rjmp	.-86     	; 0x94 <main+0x16>

000000ea <do_rand>:
  ea:	a0 e0       	ldi	r26, 0x00	; 0
  ec:	b0 e0       	ldi	r27, 0x00	; 0
  ee:	ea e7       	ldi	r30, 0x7A	; 122
  f0:	f0 e0       	ldi	r31, 0x00	; 0
  f2:	9f c0       	rjmp	.+318    	; 0x232 <__prologue_saves__+0xc>
  f4:	ec 01       	movw	r28, r24
  f6:	68 81       	ld	r22, Y
  f8:	79 81       	ldd	r23, Y+1	; 0x01
  fa:	8a 81       	ldd	r24, Y+2	; 0x02
  fc:	9b 81       	ldd	r25, Y+3	; 0x03
  fe:	61 15       	cp	r22, r1
 100:	71 05       	cpc	r23, r1
 102:	81 05       	cpc	r24, r1
 104:	91 05       	cpc	r25, r1
 106:	21 f4       	brne	.+8      	; 0x110 <do_rand+0x26>
 108:	64 e2       	ldi	r22, 0x24	; 36
 10a:	79 ed       	ldi	r23, 0xD9	; 217
 10c:	8b e5       	ldi	r24, 0x5B	; 91
 10e:	97 e0       	ldi	r25, 0x07	; 7
 110:	2d e1       	ldi	r18, 0x1D	; 29
 112:	33 ef       	ldi	r19, 0xF3	; 243
 114:	41 e0       	ldi	r20, 0x01	; 1
 116:	50 e0       	ldi	r21, 0x00	; 0
 118:	4d d0       	rcall	.+154    	; 0x1b4 <__divmodsi4>
 11a:	49 01       	movw	r8, r18
 11c:	5a 01       	movw	r10, r20
 11e:	27 ea       	ldi	r18, 0xA7	; 167
 120:	31 e4       	ldi	r19, 0x41	; 65
 122:	40 e0       	ldi	r20, 0x00	; 0
 124:	50 e0       	ldi	r21, 0x00	; 0
 126:	62 d0       	rcall	.+196    	; 0x1ec <__mulsidi3>
 128:	69 01       	movw	r12, r18
 12a:	7a 01       	movw	r14, r20
 12c:	c5 01       	movw	r24, r10
 12e:	b4 01       	movw	r22, r8
 130:	2c ee       	ldi	r18, 0xEC	; 236
 132:	34 ef       	ldi	r19, 0xF4	; 244
 134:	4f ef       	ldi	r20, 0xFF	; 255
 136:	5f ef       	ldi	r21, 0xFF	; 255
 138:	59 d0       	rcall	.+178    	; 0x1ec <__mulsidi3>
 13a:	89 01       	movw	r16, r18
 13c:	9a 01       	movw	r18, r20
 13e:	d7 01       	movw	r26, r14
 140:	c6 01       	movw	r24, r12
 142:	80 0f       	add	r24, r16
 144:	91 1f       	adc	r25, r17
 146:	a2 1f       	adc	r26, r18
 148:	b3 1f       	adc	r27, r19
 14a:	b7 ff       	sbrs	r27, 7
 14c:	03 c0       	rjmp	.+6      	; 0x154 <do_rand+0x6a>
 14e:	01 97       	sbiw	r24, 0x01	; 1
 150:	a1 09       	sbc	r26, r1
 152:	b0 48       	sbci	r27, 0x80	; 128
 154:	88 83       	st	Y, r24
 156:	99 83       	std	Y+1, r25	; 0x01
 158:	aa 83       	std	Y+2, r26	; 0x02
 15a:	bb 83       	std	Y+3, r27	; 0x03
 15c:	9f 77       	andi	r25, 0x7F	; 127
 15e:	cd b7       	in	r28, 0x3d	; 61
 160:	de b7       	in	r29, 0x3e	; 62
 162:	ec e0       	ldi	r30, 0x0C	; 12
 164:	82 c0       	rjmp	.+260    	; 0x26a <__epilogue_restores__+0xc>

00000166 <rand_r>:
 166:	c1 df       	rcall	.-126    	; 0xea <do_rand>
 168:	08 95       	ret

0000016a <rand>:
 16a:	80 e6       	ldi	r24, 0x60	; 96
 16c:	90 e0       	ldi	r25, 0x00	; 0
 16e:	bd df       	rcall	.-134    	; 0xea <do_rand>
 170:	08 95       	ret

00000172 <srand>:
 172:	a0 e0       	ldi	r26, 0x00	; 0
 174:	b0 e0       	ldi	r27, 0x00	; 0
 176:	80 93 60 00 	sts	0x0060, r24
 17a:	90 93 61 00 	sts	0x0061, r25
 17e:	a0 93 62 00 	sts	0x0062, r26
 182:	b0 93 63 00 	sts	0x0063, r27
 186:	08 95       	ret

00000188 <__eerd_byte_tn45>:
 188:	e1 99       	sbic	0x1c, 1	; 28
 18a:	fe cf       	rjmp	.-4      	; 0x188 <__eerd_byte_tn45>
 18c:	1f ba       	out	0x1f, r1	; 31
 18e:	8e bb       	out	0x1e, r24	; 30
 190:	e0 9a       	sbi	0x1c, 0	; 28
 192:	99 27       	eor	r25, r25
 194:	8d b3       	in	r24, 0x1d	; 29
 196:	08 95       	ret

00000198 <__eewr_byte_tn45>:
 198:	26 2f       	mov	r18, r22

0000019a <__eewr_r18_tn45>:
 19a:	e1 99       	sbic	0x1c, 1	; 28
 19c:	fe cf       	rjmp	.-4      	; 0x19a <__eewr_r18_tn45>
 19e:	1c ba       	out	0x1c, r1	; 28
 1a0:	1f ba       	out	0x1f, r1	; 31
 1a2:	8e bb       	out	0x1e, r24	; 30
 1a4:	2d bb       	out	0x1d, r18	; 29
 1a6:	0f b6       	in	r0, 0x3f	; 63
 1a8:	f8 94       	cli
 1aa:	e2 9a       	sbi	0x1c, 2	; 28
 1ac:	e1 9a       	sbi	0x1c, 1	; 28
 1ae:	0f be       	out	0x3f, r0	; 63
 1b0:	01 96       	adiw	r24, 0x01	; 1
 1b2:	08 95       	ret

000001b4 <__divmodsi4>:
 1b4:	05 2e       	mov	r0, r21
 1b6:	97 fb       	bst	r25, 7
 1b8:	16 f4       	brtc	.+4      	; 0x1be <__divmodsi4+0xa>
 1ba:	00 94       	com	r0
 1bc:	0f d0       	rcall	.+30     	; 0x1dc <__negsi2>
 1be:	57 fd       	sbrc	r21, 7
 1c0:	05 d0       	rcall	.+10     	; 0x1cc <__divmodsi4_neg2>
 1c2:	68 d0       	rcall	.+208    	; 0x294 <__udivmodsi4>
 1c4:	07 fc       	sbrc	r0, 7
 1c6:	02 d0       	rcall	.+4      	; 0x1cc <__divmodsi4_neg2>
 1c8:	46 f4       	brtc	.+16     	; 0x1da <__divmodsi4_exit>
 1ca:	08 c0       	rjmp	.+16     	; 0x1dc <__negsi2>

000001cc <__divmodsi4_neg2>:
 1cc:	50 95       	com	r21
 1ce:	40 95       	com	r20
 1d0:	30 95       	com	r19
 1d2:	21 95       	neg	r18
 1d4:	3f 4f       	sbci	r19, 0xFF	; 255
 1d6:	4f 4f       	sbci	r20, 0xFF	; 255
 1d8:	5f 4f       	sbci	r21, 0xFF	; 255

000001da <__divmodsi4_exit>:
 1da:	08 95       	ret

000001dc <__negsi2>:
 1dc:	90 95       	com	r25
 1de:	80 95       	com	r24
 1e0:	70 95       	com	r23
 1e2:	61 95       	neg	r22
 1e4:	7f 4f       	sbci	r23, 0xFF	; 255
 1e6:	8f 4f       	sbci	r24, 0xFF	; 255
 1e8:	9f 4f       	sbci	r25, 0xFF	; 255
 1ea:	08 95       	ret

000001ec <__mulsidi3>:
 1ec:	68 94       	set
 1ee:	00 13       	cpse	r16, r16

000001f0 <__umulsidi3>:
 1f0:	e8 94       	clt
 1f2:	a0 e0       	ldi	r26, 0x00	; 0
 1f4:	b0 e0       	ldi	r27, 0x00	; 0
 1f6:	ee ef       	ldi	r30, 0xFE	; 254
 1f8:	f0 e0       	ldi	r31, 0x00	; 0
 1fa:	1d c0       	rjmp	.+58     	; 0x236 <__prologue_saves__+0x10>
 1fc:	ef ef       	ldi	r30, 0xFF	; 255
 1fe:	e7 f9       	bld	r30, 7
 200:	59 01       	movw	r10, r18
 202:	6a 01       	movw	r12, r20
 204:	5e 23       	and	r21, r30
 206:	55 0f       	add	r21, r21
 208:	ee 08       	sbc	r14, r14
 20a:	fe 2c       	mov	r15, r14
 20c:	87 01       	movw	r16, r14
 20e:	9b 01       	movw	r18, r22
 210:	ac 01       	movw	r20, r24
 212:	9e 23       	and	r25, r30
 214:	99 0f       	add	r25, r25
 216:	66 0b       	sbc	r22, r22
 218:	76 2f       	mov	r23, r22
 21a:	cb 01       	movw	r24, r22
 21c:	5d d0       	rcall	.+186    	; 0x2d8 <__muldi3>
 21e:	cd b7       	in	r28, 0x3d	; 61
 220:	de b7       	in	r29, 0x3e	; 62
 222:	ea e0       	ldi	r30, 0x0A	; 10
 224:	24 c0       	rjmp	.+72     	; 0x26e <__epilogue_restores__+0x10>

00000226 <__prologue_saves__>:
 226:	2f 92       	push	r2
 228:	3f 92       	push	r3
 22a:	4f 92       	push	r4
 22c:	5f 92       	push	r5
 22e:	6f 92       	push	r6
 230:	7f 92       	push	r7
 232:	8f 92       	push	r8
 234:	9f 92       	push	r9
 236:	af 92       	push	r10
 238:	bf 92       	push	r11
 23a:	cf 92       	push	r12
 23c:	df 92       	push	r13
 23e:	ef 92       	push	r14
 240:	ff 92       	push	r15
 242:	0f 93       	push	r16
 244:	1f 93       	push	r17
 246:	cf 93       	push	r28
 248:	df 93       	push	r29
 24a:	cd b7       	in	r28, 0x3d	; 61
 24c:	de b7       	in	r29, 0x3e	; 62
 24e:	ca 1b       	sub	r28, r26
 250:	db 0b       	sbc	r29, r27
 252:	0f b6       	in	r0, 0x3f	; 63
 254:	f8 94       	cli
 256:	de bf       	out	0x3e, r29	; 62
 258:	0f be       	out	0x3f, r0	; 63
 25a:	cd bf       	out	0x3d, r28	; 61
 25c:	09 94       	ijmp

0000025e <__epilogue_restores__>:
 25e:	2a 88       	ldd	r2, Y+18	; 0x12
 260:	39 88       	ldd	r3, Y+17	; 0x11
 262:	48 88       	ldd	r4, Y+16	; 0x10
 264:	5f 84       	ldd	r5, Y+15	; 0x0f
 266:	6e 84       	ldd	r6, Y+14	; 0x0e
 268:	7d 84       	ldd	r7, Y+13	; 0x0d
 26a:	8c 84       	ldd	r8, Y+12	; 0x0c
 26c:	9b 84       	ldd	r9, Y+11	; 0x0b
 26e:	aa 84       	ldd	r10, Y+10	; 0x0a
 270:	b9 84       	ldd	r11, Y+9	; 0x09
 272:	c8 84       	ldd	r12, Y+8	; 0x08
 274:	df 80       	ldd	r13, Y+7	; 0x07
 276:	ee 80       	ldd	r14, Y+6	; 0x06
 278:	fd 80       	ldd	r15, Y+5	; 0x05
 27a:	0c 81       	ldd	r16, Y+4	; 0x04
 27c:	1b 81       	ldd	r17, Y+3	; 0x03
 27e:	aa 81       	ldd	r26, Y+2	; 0x02
 280:	b9 81       	ldd	r27, Y+1	; 0x01
 282:	ce 0f       	add	r28, r30
 284:	d1 1d       	adc	r29, r1
 286:	0f b6       	in	r0, 0x3f	; 63
 288:	f8 94       	cli
 28a:	de bf       	out	0x3e, r29	; 62
 28c:	0f be       	out	0x3f, r0	; 63
 28e:	cd bf       	out	0x3d, r28	; 61
 290:	ed 01       	movw	r28, r26
 292:	08 95       	ret

00000294 <__udivmodsi4>:
 294:	a1 e2       	ldi	r26, 0x21	; 33
 296:	1a 2e       	mov	r1, r26
 298:	aa 1b       	sub	r26, r26
 29a:	bb 1b       	sub	r27, r27
 29c:	fd 01       	movw	r30, r26
 29e:	0d c0       	rjmp	.+26     	; 0x2ba <__udivmodsi4_ep>

000002a0 <__udivmodsi4_loop>:
 2a0:	aa 1f       	adc	r26, r26
 2a2:	bb 1f       	adc	r27, r27
 2a4:	ee 1f       	adc	r30, r30
 2a6:	ff 1f       	adc	r31, r31
 2a8:	a2 17       	cp	r26, r18
 2aa:	b3 07       	cpc	r27, r19
 2ac:	e4 07       	cpc	r30, r20
 2ae:	f5 07       	cpc	r31, r21
 2b0:	20 f0       	brcs	.+8      	; 0x2ba <__udivmodsi4_ep>
 2b2:	a2 1b       	sub	r26, r18
 2b4:	b3 0b       	sbc	r27, r19
 2b6:	e4 0b       	sbc	r30, r20
 2b8:	f5 0b       	sbc	r31, r21

000002ba <__udivmodsi4_ep>:
 2ba:	66 1f       	adc	r22, r22
 2bc:	77 1f       	adc	r23, r23
 2be:	88 1f       	adc	r24, r24
 2c0:	99 1f       	adc	r25, r25
 2c2:	1a 94       	dec	r1
 2c4:	69 f7       	brne	.-38     	; 0x2a0 <__udivmodsi4_loop>
 2c6:	60 95       	com	r22
 2c8:	70 95       	com	r23
 2ca:	80 95       	com	r24
 2cc:	90 95       	com	r25
 2ce:	9b 01       	movw	r18, r22
 2d0:	ac 01       	movw	r20, r24
 2d2:	bd 01       	movw	r22, r26
 2d4:	cf 01       	movw	r24, r30
 2d6:	08 95       	ret

000002d8 <__muldi3>:
 2d8:	df 93       	push	r29
 2da:	cf 93       	push	r28
 2dc:	9f 92       	push	r9
 2de:	a0 e4       	ldi	r26, 0x40	; 64
 2e0:	9a 2e       	mov	r9, r26
 2e2:	00 24       	eor	r0, r0
 2e4:	d0 01       	movw	r26, r0
 2e6:	e0 01       	movw	r28, r0
 2e8:	f0 01       	movw	r30, r0
 2ea:	16 95       	lsr	r17
 2ec:	07 95       	ror	r16
 2ee:	f7 94       	ror	r15
 2f0:	e7 94       	ror	r14
 2f2:	d7 94       	ror	r13
 2f4:	c7 94       	ror	r12
 2f6:	b7 94       	ror	r11
 2f8:	a7 94       	ror	r10
 2fa:	48 f4       	brcc	.+18     	; 0x30e <__muldi3+0x36>
 2fc:	10 68       	ori	r17, 0x80	; 128
 2fe:	a2 0f       	add	r26, r18
 300:	b3 1f       	adc	r27, r19
 302:	c4 1f       	adc	r28, r20
 304:	d5 1f       	adc	r29, r21
 306:	e6 1f       	adc	r30, r22
 308:	f7 1f       	adc	r31, r23
 30a:	08 1e       	adc	r0, r24
 30c:	19 1e       	adc	r1, r25
 30e:	22 0f       	add	r18, r18
 310:	33 1f       	adc	r19, r19
 312:	44 1f       	adc	r20, r20
 314:	55 1f       	adc	r21, r21
 316:	66 1f       	adc	r22, r22
 318:	77 1f       	adc	r23, r23
 31a:	88 1f       	adc	r24, r24
 31c:	99 1f       	adc	r25, r25
 31e:	9a 94       	dec	r9
 320:	21 f7       	brne	.-56     	; 0x2ea <__muldi3+0x12>
 322:	9d 01       	movw	r18, r26
 324:	ae 01       	movw	r20, r28
 326:	bf 01       	movw	r22, r30
 328:	c0 01       	movw	r24, r0
 32a:	11 24       	eor	r1, r1
 32c:	9f 90       	pop	r9
 32e:	cf 91       	pop	r28
 330:	df 91       	pop	r29
 332:	08 95       	ret

00000334 <_exit>:
 334:	f8 94       	cli

00000336 <__stop_program>:
 336:	ff cf       	rjmp	.-2      	; 0x336 <__stop_program>
